target datalayout = "e-m:e-p270:32:32-p271:32:32-p272:64:64-i64:64-i128:128-f80:128-n8:16:32:64-S128"
target triple = "x86_64-pc-linux-gnu"

%struct._lv_font_manager_t = type { %struct.lv_ll_t, %struct.lv_ll_t, %struct.lv_ll_t, ptr }
%struct.lv_ll_t = type { i32, ptr, ptr }
%struct._lv_font_path_t = type { ptr, ptr, i8 }

; Function Attrs: nounwind uwtable
define zeroext i1 @lv_font_manager_remove_path(ptr noundef %0, ptr noundef %1) #0 {
  %3 = alloca i1, align 1
  %4 = alloca ptr, align 8
  %5 = alloca ptr, align 8
  %6 = alloca ptr, align 8
  %7 = alloca i32, align 4
  store ptr %0, ptr %4, align 8, !tbaa !7
  store ptr %1, ptr %5, align 8, !tbaa !7
  call void @llvm.lifetime.start.p0(i64 8, ptr %6) #6
  %8 = load ptr, ptr %4, align 8, !tbaa !7
  %9 = getelementptr inbounds nuw %struct._lv_font_manager_t, ptr %8, i32 0, i32 2
  %10 = call ptr @lv_ll_get_head(ptr noundef %9)
  store ptr %10, ptr %6, align 8, !tbaa !7
  br label %11

11:                                               ; preds = %23, %2
  %12 = load ptr, ptr %6, align 8, !tbaa !7
  %13 = icmp ne ptr %12, null
  br i1 %13, label %14, label %28

14:                                               ; preds = %11
  %15 = load ptr, ptr %5, align 8, !tbaa !7
  %16 = load ptr, ptr %6, align 8, !tbaa !7
  %17 = getelementptr inbounds nuw %struct._lv_font_path_t, ptr %16, i32 0, i32 0
  %18 = load ptr, ptr %17, align 8, !tbaa !17
  %19 = call i32 @lv_strcmp(ptr noundef %15, ptr noundef %18)
  %20 = icmp eq i32 %19, 0
  br i1 %20, label %21, label %22

21:                                               ; preds = %14
  br label %28

22:                                               ; preds = %14
  br label %23

23:                                               ; preds = %22
  %24 = load ptr, ptr %4, align 8, !tbaa !7
  %25 = getelementptr inbounds nuw %struct._lv_font_manager_t, ptr %24, i32 0, i32 2
  %26 = load ptr, ptr %6, align 8, !tbaa !7
  %27 = call ptr @lv_ll_get_next(ptr noundef %25, ptr noundef %26)
  store ptr %27, ptr %6, align 8, !tbaa !7
  br label %11, !llvm.loop !24

28:                                               ; preds = %21, %11
  %29 = load ptr, ptr %6, align 8, !tbaa !7
  %30 = icmp ne ptr %29, null
  br i1 %30, label %35, label %31

31:                                               ; preds = %28
  br label %32

32:                                               ; preds = %31
  br label %33

33:                                               ; preds = %32
  br label %34

34:                                               ; preds = %33
  store i1 false, ptr %3, align 1
  store i32 1, ptr %7, align 4
  br label %59

35:                                               ; preds = %28
  %36 = load ptr, ptr %4, align 8, !tbaa !7
  %37 = getelementptr inbounds nuw %struct._lv_font_manager_t, ptr %36, i32 0, i32 2
  %38 = load ptr, ptr %6, align 8, !tbaa !7
  call void @lv_ll_remove(ptr noundef %37, ptr noundef %38)
  %39 = load ptr, ptr %6, align 8, !tbaa !7
  %40 = getelementptr inbounds nuw %struct._lv_font_path_t, ptr %39, i32 0, i32 2
  %41 = load i8, ptr %40, align 8, !tbaa !12, !range !15, !noundef !16
  %42 = trunc i8 %41 to i1
  br i1 %42, label %50, label %43

43:                                               ; preds = %35
  %44 = load ptr, ptr %6, align 8, !tbaa !7
  %45 = getelementptr inbounds nuw %struct._lv_font_path_t, ptr %44, i32 0, i32 0
  %46 = load ptr, ptr %45, align 8, !tbaa !17
  call void @lv_free(ptr noundef %46)
  %47 = load ptr, ptr %6, align 8, !tbaa !7
  %48 = getelementptr inbounds nuw %struct._lv_font_path_t, ptr %47, i32 0, i32 1
  %49 = load ptr, ptr %48, align 8, !tbaa !18
  call void @lv_free(ptr noundef %49)
  br label %50

50:                                               ; preds = %43, %35
  %51 = load ptr, ptr %6, align 8, !tbaa !7
  %52 = getelementptr inbounds nuw %struct._lv_font_path_t, ptr %51, i32 0, i32 0
  store ptr null, ptr %52, align 8, !tbaa !17
  %53 = load ptr, ptr %6, align 8, !tbaa !7
  %54 = getelementptr inbounds nuw %struct._lv_font_path_t, ptr %53, i32 0, i32 1
  store ptr null, ptr %54, align 8, !tbaa !18
  %55 = load ptr, ptr %6, align 8, !tbaa !7
  call void @lv_free(ptr noundef %55)
  br label %56

56:                                               ; preds = %50
  br label %57

57:                                               ; preds = %56
  br label %58

58:                                               ; preds = %57
  store i1 true, ptr %3, align 1
  store i32 1, ptr %7, align 4
  br label %59

59:                                               ; preds = %58, %34
  call void @llvm.lifetime.end.p0(i64 8, ptr %6) #6
  %60 = load i1, ptr %3, align 1
  ret i1 %60
}