; Function Attrs: nounwind uwtable
define noundef zeroext i1 @lv_font_manager_remove_path(ptr noundef %0, ptr noundef %1) local_unnamed_addr #0 {
  %3 = getelementptr inbounds nuw i8, ptr %0, i64 48
  %4 = tail call ptr @lv_ll_get_head(ptr noundef nonnull %3) #5
  %.not20.not = icmp eq ptr %4, null
  br i1 %.not20.not, label %.critedge, label %.lr.ph

.lr.ph:                                           ; preds = %2, %8
  %.021 = phi ptr [ %9, %8 ], [ %4, %2 ]
  %5 = load ptr, ptr %.021, align 8, !tbaa !18
  %6 = tail call i32 @lv_strcmp(ptr noundef %1, ptr noundef %5) #5
  %7 = icmp eq i32 %6, 0
  br i1 %7, label %10, label %8

8:                                                ; preds = %.lr.ph
  %9 = tail call ptr @lv_ll_get_next(ptr noundef nonnull %3, ptr noundef nonnull %.021) #5
  %.not.not = icmp eq ptr %9, null
  br i1 %.not.not, label %.critedge, label %.lr.ph, !llvm.loop !22

10:                                               ; preds = %.lr.ph
  tail call void @lv_ll_remove(ptr noundef nonnull %3, ptr noundef nonnull %.021) #5
  %11 = getelementptr inbounds nuw i8, ptr %.021, i64 16
  %12 = load i8, ptr %11, align 8, !tbaa !13, !range !16, !noundef !17
  %13 = trunc nuw i8 %12 to i1
  br i1 %13, label %18, label %14

14:                                               ; preds = %10
  %15 = load ptr, ptr %.021, align 8, !tbaa !18
  tail call void @lv_free(ptr noundef %15) #5
  %16 = getelementptr inbounds nuw i8, ptr %.021, i64 8
  %17 = load ptr, ptr %16, align 8, !tbaa !19
  tail call void @lv_free(ptr noundef %17) #5
  br label %18

18:                                               ; preds = %14, %10
  tail call void @llvm.memset.p0.i64(ptr noundef nonnull align 8 dereferenceable(16) %.021, i8 0, i64 16, i1 false)
  tail call void @lv_free(ptr noundef nonnull %.021) #5
  br label %.critedge

.critedge:                                        ; preds = %8, %2, %18
  %.not18 = phi i1 [ true, %18 ], [ false, %2 ], [ false, %8 ]
  ret i1 %.not18
}